target datalayout = "e-m:e-p270:32:32-p271:32:32-p272:64:64-i64:64-i128:128-f80:128-n8:16:32:64-S128"
target triple = "x86_64-pc-linux-gnu"

%struct.ObjectAddress = type { i32, i32, i32 }
%struct.nameData = type { [64 x i8] }
%struct.RelationData = type { %struct.RelFileLocator, ptr, i32, i32, i8, i8, i8, i8, i8, i32, i32, i32, i32, ptr, ptr, i32, %struct.LockInfoData, ptr, ptr, ptr, ptr, ptr, i8, ptr, ptr, ptr, ptr, ptr, ptr, i32, ptr, i8, ptr, ptr, i32, i8, i32, ptr, i8, ptr, ptr, ptr, ptr, ptr, ptr, ptr, i32, ptr, ptr, ptr, ptr, ptr, ptr, ptr, ptr, ptr, ptr, ptr, ptr, ptr, ptr, ptr, ptr, ptr, ptr, ptr, i32, i8, ptr }
%struct.RelFileLocator = type { i32, i32, i32 }
%struct.LockInfoData = type { %struct.LockRelId }
%struct.LockRelId = type { i32, i32 }

@.str = private unnamed_addr constant [34 x i8] c"\22%s\22 is not a valid operator name\00", align 1
@.str.1 = private unnamed_addr constant [14 x i8] c"pg_operator.c\00", align 1
@object_access_hook = external global ptr, align 8
@__func__.OperatorShellMake = private unnamed_addr constant [18 x i8] c"OperatorShellMake\00", align 1

; Function Attrs: inlinehint nounwind uwtable
define internal i64 @PointerGetDatum(ptr noundef %0) #4 {
  %2 = alloca ptr, align 8
  store ptr %0, ptr %2, align 8
  %3 = load ptr, ptr %2, align 8
  %4 = ptrtoint ptr %3 to i64
  ret i64 %4
}

; Function Attrs: inlinehint nounwind uwtable
define internal i64 @CStringGetDatum(ptr noundef %0) #4 {
  %2 = alloca ptr, align 8
  store ptr %0, ptr %2, align 8
  %3 = load ptr, ptr %2, align 8
  %4 = call i64 @PointerGetDatum(ptr noundef %3)
  ret i64 %4
}

; Function Attrs: inlinehint nounwind uwtable
define internal i64 @BoolGetDatum(i1 noundef zeroext %0) #4 {
  %2 = alloca i8, align 1
  %3 = zext i1 %0 to i8
  store i8 %3, ptr %2, align 1
  %4 = load i8, ptr %2, align 1, !range !4, !noundef !5
  %5 = trunc i8 %4 to i1
  %6 = select i1 %5, i32 1, i32 0
  %7 = sext i32 %6 to i64
  ret i64 %7
}

; Function Attrs: inlinehint nounwind uwtable
define internal i64 @CharGetDatum(i8 noundef signext %0) #4 {
  %2 = alloca i8, align 1
  store i8 %0, ptr %2, align 1
  %3 = load i8, ptr %2, align 1
  %4 = sext i8 %3 to i64
  ret i64 %4
}

; Function Attrs: inlinehint nounwind uwtable
define internal i64 @NameGetDatum(ptr noundef %0) #4 {
  %2 = alloca ptr, align 8
  store ptr %0, ptr %2, align 8
  %3 = load ptr, ptr %2, align 8
  %4 = getelementptr inbounds nuw %struct.nameData, ptr %3, i32 0, i32 0
  %5 = getelementptr inbounds [64 x i8], ptr %4, i64 0, i64 0
  %6 = call i64 @CStringGetDatum(ptr noundef %5)
  ret i64 %6
}

; Function Attrs: inlinehint nounwind uwtable
define internal i64 @ObjectIdGetDatum(i32 noundef %0) #4 {
  %2 = alloca i32, align 4
  store i32 %0, ptr %2, align 4
  %3 = load i32, ptr %2, align 4
  %4 = zext i32 %3 to i64
  ret i64 %4
}

; Function Attrs: nounwind uwtable
define internal i32 @OperatorShellMake(ptr noundef %0, i32 noundef %1, i32 noundef %2, i32 noundef %3) #0 {
  %5 = alloca ptr, align 8
  %6 = alloca i32, align 4
  %7 = alloca i32, align 4
  %8 = alloca i32, align 4
  %9 = alloca ptr, align 8
  %10 = alloca i32, align 4
  %11 = alloca i32, align 4
  %12 = alloca ptr, align 8
  %13 = alloca [15 x i64], align 16
  %14 = alloca [15 x i8], align 1
  %15 = alloca %struct.nameData, align 1
  %16 = alloca ptr, align 8
  %17 = alloca %struct.ObjectAddress, align 4
  %18 = alloca { i64, i32 }, align 8
  store ptr %0, ptr %5, align 8
  store i32 %1, ptr %6, align 4
  store i32 %2, ptr %7, align 4
  store i32 %3, ptr %8, align 4
  call void @llvm.lifetime.start.p0(i64 8, ptr %9) #7
  call void @llvm.lifetime.start.p0(i64 4, ptr %10) #7
  call void @llvm.lifetime.start.p0(i64 4, ptr %11) #7
  call void @llvm.lifetime.start.p0(i64 8, ptr %12) #7
  call void @llvm.lifetime.start.p0(i64 120, ptr %13) #7
  call void @llvm.lifetime.start.p0(i64 15, ptr %14) #7
  call void @llvm.lifetime.start.p0(i64 64, ptr %15) #7
  call void @llvm.lifetime.start.p0(i64 8, ptr %16) #7
  %19 = load ptr, ptr %5, align 8
  %20 = call zeroext i1 @validOperatorName(ptr noundef %19)
  br i1 %20, label %34, label %21

21:                                               ; preds = %4
  br label %22

22:                                               ; preds = %21
  br i1 true, label %23, label %25

23:                                               ; preds = %22
  %24 = call zeroext i1 @errstart_cold(i32 noundef 21, ptr noundef null) #8
  br i1 %24, label %27, label %31

25:                                               ; preds = %22
  %26 = call zeroext i1 @errstart(i32 noundef 21, ptr noundef null)
  br i1 %26, label %27, label %31

27:                                               ; preds = %25, %23
  %28 = call i32 @errcode(i32 noundef 33579140)
  %29 = load ptr, ptr %5, align 8
  %30 = call i32 (ptr, ...) @errmsg(ptr noundef @.str, ptr noundef %29)
  call void @errfinish(ptr noundef @.str.1, i32 noundef 214, ptr noundef @__func__.OperatorShellMake)
  br label %31

31:                                               ; preds = %27, %25, %23
  unreachable

32:                                               ; No predecessors!
  br label %33

33:                                               ; preds = %32
  br label %34

34:                                               ; preds = %33, %4
  %35 = call ptr @table_open(i32 noundef 2617, i32 noundef 3)
  store ptr %35, ptr %9, align 8
  %36 = load ptr, ptr %9, align 8
  %37 = getelementptr inbounds nuw %struct.RelationData, ptr %36, i32 0, i32 14
  %38 = load ptr, ptr %37, align 8
  store ptr %38, ptr %16, align 8
  store i32 0, ptr %11, align 4
  br label %39

39:                                               ; preds = %49, %34
  %40 = load i32, ptr %11, align 4
  %41 = icmp slt i32 %40, 15
  br i1 %41, label %42, label %52

42:                                               ; preds = %39
  %43 = load i32, ptr %11, align 4
  %44 = sext i32 %43 to i64
  %45 = getelementptr inbounds [15 x i8], ptr %14, i64 0, i64 %44
  store i8 0, ptr %45, align 1
  %46 = load i32, ptr %11, align 4
  %47 = sext i32 %46 to i64
  %48 = getelementptr inbounds [15 x i64], ptr %13, i64 0, i64 %47
  store i64 0, ptr %48, align 8
  br label %49

49:                                               ; preds = %42
  %50 = load i32, ptr %11, align 4
  %51 = add i32 %50, 1
  store i32 %51, ptr %11, align 4
  br label %39, !llvm.loop !9

52:                                               ; preds = %39
  %53 = load ptr, ptr %9, align 8
  %54 = call i32 @GetNewOidWithIndex(ptr noundef %53, i32 noundef 2688, i16 noundef signext 1)
  store i32 %54, ptr %10, align 4
  %55 = load i32, ptr %10, align 4
  %56 = call i64 @ObjectIdGetDatum(i32 noundef %55)
  %57 = getelementptr inbounds [15 x i64], ptr %13, i64 0, i64 0
  store i64 %56, ptr %57, align 16
  %58 = load ptr, ptr %5, align 8
  call void @namestrcpy(ptr noundef %15, ptr noundef %58)
  %59 = call i64 @NameGetDatum(ptr noundef %15)
  %60 = getelementptr inbounds [15 x i64], ptr %13, i64 0, i64 1
  store i64 %59, ptr %60, align 8
  %61 = load i32, ptr %6, align 4
  %62 = call i64 @ObjectIdGetDatum(i32 noundef %61)
  %63 = getelementptr inbounds [15 x i64], ptr %13, i64 0, i64 2
  store i64 %62, ptr %63, align 16
  %64 = call i32 @GetUserId()
  %65 = call i64 @ObjectIdGetDatum(i32 noundef %64)
  %66 = getelementptr inbounds [15 x i64], ptr %13, i64 0, i64 3
  store i64 %65, ptr %66, align 8
  %67 = load i32, ptr %7, align 4
  %68 = icmp ne i32 %67, 0
  %69 = select i1 %68, i32 98, i32 108
  %70 = trunc i32 %69 to i8
  %71 = call i64 @CharGetDatum(i8 noundef signext %70)
  %72 = getelementptr inbounds [15 x i64], ptr %13, i64 0, i64 4
  store i64 %71, ptr %72, align 16
  %73 = call i64 @BoolGetDatum(i1 noundef zeroext false)
  %74 = getelementptr inbounds [15 x i64], ptr %13, i64 0, i64 5
  store i64 %73, ptr %74, align 8
  %75 = call i64 @BoolGetDatum(i1 noundef zeroext false)
  %76 = getelementptr inbounds [15 x i64], ptr %13, i64 0, i64 6
  store i64 %75, ptr %76, align 16
  %77 = load i32, ptr %7, align 4
  %78 = call i64 @ObjectIdGetDatum(i32 noundef %77)
  %79 = getelementptr inbounds [15 x i64], ptr %13, i64 0, i64 7
  store i64 %78, ptr %79, align 8
  %80 = load i32, ptr %8, align 4
  %81 = call i64 @ObjectIdGetDatum(i32 noundef %80)
  %82 = getelementptr inbounds [15 x i64], ptr %13, i64 0, i64 8
  store i64 %81, ptr %82, align 16
  %83 = call i64 @ObjectIdGetDatum(i32 noundef 0)
  %84 = getelementptr inbounds [15 x i64], ptr %13, i64 0, i64 9
  store i64 %83, ptr %84, align 8
  %85 = call i64 @ObjectIdGetDatum(i32 noundef 0)
  %86 = getelementptr inbounds [15 x i64], ptr %13, i64 0, i64 10
  store i64 %85, ptr %86, align 16
  %87 = call i64 @ObjectIdGetDatum(i32 noundef 0)
  %88 = getelementptr inbounds [15 x i64], ptr %13, i64 0, i64 11
  store i64 %87, ptr %88, align 8
  %89 = call i64 @ObjectIdGetDatum(i32 noundef 0)
  %90 = getelementptr inbounds [15 x i64], ptr %13, i64 0, i64 12
  store i64 %89, ptr %90, align 16
  %91 = call i64 @ObjectIdGetDatum(i32 noundef 0)
  %92 = getelementptr inbounds [15 x i64], ptr %13, i64 0, i64 13
  store i64 %91, ptr %92, align 8
  %93 = call i64 @ObjectIdGetDatum(i32 noundef 0)
  %94 = getelementptr inbounds [15 x i64], ptr %13, i64 0, i64 14
  store i64 %93, ptr %94, align 16
  %95 = load ptr, ptr %16, align 8
  %96 = getelementptr inbounds [15 x i64], ptr %13, i64 0, i64 0
  %97 = getelementptr inbounds [15 x i8], ptr %14, i64 0, i64 0
  %98 = call ptr @heap_form_tuple(ptr noundef %95, ptr noundef %96, ptr noundef %97)
  store ptr %98, ptr %12, align 8
  %99 = load ptr, ptr %9, align 8
  %100 = load ptr, ptr %12, align 8
  call void @CatalogTupleInsert(ptr noundef %99, ptr noundef %100)
  %101 = load ptr, ptr %12, align 8
  %102 = call { i64, i32 } @makeOperatorDependencies(ptr noundef %101, i1 noundef zeroext true, i1 noundef zeroext false)
  store { i64, i32 } %102, ptr %18, align 8
  call void @llvm.memcpy.p0.p0.i64(ptr align 4 %17, ptr align 8 %18, i64 12, i1 false)
  %103 = load ptr, ptr %12, align 8
  call void @heap_freetuple(ptr noundef %103)
  br label %104

104:                                              ; preds = %52
  %105 = load ptr, ptr @object_access_hook, align 8
  %106 = icmp ne ptr %105, null
  br i1 %106, label %107, label %109

107:                                              ; preds = %104
  %108 = load i32, ptr %10, align 4
  call void @RunObjectPostCreateHook(i32 noundef 2617, i32 noundef %108, i32 noundef 0, i1 noundef zeroext false)
  br label %109

109:                                              ; preds = %107, %104
  br label %110

110:                                              ; preds = %109
  br label %111

111:                                              ; preds = %110
  call void @CommandCounterIncrement()
  %112 = load ptr, ptr %9, align 8
  call void @table_close(ptr noundef %112, i32 noundef 3)
  %113 = load i32, ptr %10, align 4
  call void @llvm.lifetime.end.p0(i64 8, ptr %16) #7
  call void @llvm.lifetime.end.p0(i64 64, ptr %15) #7
  call void @llvm.lifetime.end.p0(i64 15, ptr %14) #7
  call void @llvm.lifetime.end.p0(i64 120, ptr %13) #7
  call void @llvm.lifetime.end.p0(i64 8, ptr %12) #7
  call void @llvm.lifetime.end.p0(i64 4, ptr %11) #7
  call void @llvm.lifetime.end.p0(i64 4, ptr %10) #7
  call void @llvm.lifetime.end.p0(i64 8, ptr %9) #7
  ret i32 %113
}

; Function Attrs: nounwind uwtable
define dso_local i32 @OperatorLookup(ptr noundef %0, i32 noundef %1, i32 noundef %2, ptr noundef %3) #0 {
  %5 = alloca i32, align 4
  %6 = alloca ptr, align 8
  %7 = alloca i32, align 4
  %8 = alloca i32, align 4
  %9 = alloca ptr, align 8
  %10 = alloca i32, align 4
  %11 = alloca i32, align 4
  %12 = alloca i32, align 4
  store ptr %0, ptr %6, align 8
  store i32 %1, ptr %7, align 4
  store i32 %2, ptr %8, align 4
  store ptr %3, ptr %9, align 8
  call void @llvm.lifetime.start.p0(i64 4, ptr %10) #7
  call void @llvm.lifetime.start.p0(i64 4, ptr %11) #7
  %13 = load ptr, ptr %6, align 8
  %14 = load i32, ptr %7, align 4
  %15 = load i32, ptr %8, align 4
  %16 = call i32 @LookupOperName(ptr noundef null, ptr noundef %13, i32 noundef %14, i32 noundef %15, i1 noundef zeroext true, i32 noundef -1)
  store i32 %16, ptr %10, align 4
  %17 = load i32, ptr %10, align 4
  %18 = icmp ne i32 %17, 0
  br i1 %18, label %21, label %19

19:                                               ; preds = %4
  %20 = load ptr, ptr %9, align 8
  store i8 0, ptr %20, align 1
  store i32 0, ptr %5, align 4
  store i32 1, ptr %12, align 4
  br label %29

21:                                               ; preds = %4
  %22 = load i32, ptr %10, align 4
  %23 = call i32 @get_opcode(i32 noundef %22)
  store i32 %23, ptr %11, align 4
  %24 = load i32, ptr %11, align 4
  %25 = icmp ne i32 %24, 0
  %26 = load ptr, ptr %9, align 8
  %27 = zext i1 %25 to i8
  store i8 %27, ptr %26, align 1
  %28 = load i32, ptr %10, align 4
  store i32 %28, ptr %5, align 4
  store i32 1, ptr %12, align 4
  br label %29

29:                                               ; preds = %21, %19
  call void @llvm.lifetime.end.p0(i64 4, ptr %11) #7
  call void @llvm.lifetime.end.p0(i64 4, ptr %10) #7
  %30 = load i32, ptr %5, align 4
  ret i32 %30
}

; Function Attrs: nounwind uwtable
define internal i32 @get_other_operator(ptr noundef %0, i32 noundef %1, i32 noundef %2, ptr noundef %3, i32 noundef %4, i32 noundef %5, i32 noundef %6) #0 {
  %8 = alloca i32, align 4
  %9 = alloca ptr, align 8
  %10 = alloca i32, align 4
  %11 = alloca i32, align 4
  %12 = alloca ptr, align 8
  %13 = alloca i32, align 4
  %14 = alloca i32, align 4
  %15 = alloca i32, align 4
  %16 = alloca i32, align 4
  %17 = alloca i8, align 1
  %18 = alloca ptr, align 8
  %19 = alloca i32, align 4
  %20 = alloca i32, align 4
  %21 = alloca i32, align 4
  store ptr %0, ptr %9, align 8
  store i32 %1, ptr %10, align 4
  store i32 %2, ptr %11, align 4
  store ptr %3, ptr %12, align 8
  store i32 %4, ptr %13, align 4
  store i32 %5, ptr %14, align 4
  store i32 %6, ptr %15, align 4
  call void @llvm.lifetime.start.p0(i64 4, ptr %16) #7
  call void @llvm.lifetime.start.p0(i64 1, ptr %17) #7
  call void @llvm.lifetime.start.p0(i64 8, ptr %18) #7
  call void @llvm.lifetime.start.p0(i64 4, ptr %19) #7
  call void @llvm.lifetime.start.p0(i64 4, ptr %20) #7
  %22 = load ptr, ptr %9, align 8
  %23 = load i32, ptr %10, align 4
  %24 = load i32, ptr %11, align 4
  %25 = call i32 @OperatorLookup(ptr noundef %22, i32 noundef %23, i32 noundef %24, ptr noundef %17)
  store i32 %25, ptr %16, align 4
  %26 = load i32, ptr %16, align 4
  %27 = icmp ne i32 %26, 0
  br i1 %27, label %28, label %30

28:                                               ; preds = %7
  %29 = load i32, ptr %16, align 4
  store i32 %29, ptr %8, align 4
  store i32 1, ptr %21, align 4
  br label %67

30:                                               ; preds = %7
  %31 = load ptr, ptr %9, align 8
  %32 = call i32 @QualifiedNameGetCreationNamespace(ptr noundef %31, ptr noundef %18)
  store i32 %32, ptr %19, align 4
  %33 = load ptr, ptr %18, align 8
  %34 = load ptr, ptr %12, align 8
  %35 = call i32 @strcmp(ptr noundef %33, ptr noundef %34) #9
  %36 = icmp eq i32 %35, 0
  br i1 %36, label %37, label %50

37:                                               ; preds = %30
  %38 = load i32, ptr %19, align 4
  %39 = load i32, ptr %13, align 4
  %40 = icmp eq i32 %38, %39
  br i1 %40, label %41, label %50

41:                                               ; preds = %37
  %42 = load i32, ptr %10, align 4
  %43 = load i32, ptr %14, align 4
  %44 = icmp eq i32 %42, %43
  br i1 %44, label %45, label %50

45:                                               ; preds = %41
  %46 = load i32, ptr %11, align 4
  %47 = load i32, ptr %15, align 4
  %48 = icmp eq i32 %46, %47
  br i1 %48, label %49, label %50

49:                                               ; preds = %45
  store i32 0, ptr %8, align 4
  store i32 1, ptr %21, align 4
  br label %67

50:                                               ; preds = %45, %41, %37, %30
  %51 = load i32, ptr %19, align 4
  %52 = call i32 @GetUserId()
  %53 = call i32 @object_aclcheck(i32 noundef 2615, i32 noundef %51, i32 noundef %52, i64 noundef 512)
  store i32 %53, ptr %20, align 4
  %54 = load i32, ptr %20, align 4
  %55 = icmp ne i32 %54, 0
  br i1 %55, label %56, label %60

56:                                               ; preds = %50
  %57 = load i32, ptr %20, align 4
  %58 = load i32, ptr %19, align 4
  %59 = call ptr @get_namespace_name(i32 noundef %58)
  call void @aclcheck_error(i32 noundef %57, i32 noundef 36, ptr noundef %59)
  br label %60

60:                                               ; preds = %56, %50
  %61 = load ptr, ptr %18, align 8
  %62 = load i32, ptr %19, align 4
  %63 = load i32, ptr %10, align 4
  %64 = load i32, ptr %11, align 4
  %65 = call i32 @OperatorShellMake(ptr noundef %61, i32 noundef %62, i32 noundef %63, i32 noundef %64)
  store i32 %65, ptr %16, align 4
  %66 = load i32, ptr %16, align 4
  store i32 %66, ptr %8, align 4
  store i32 1, ptr %21, align 4
  br label %67

67:                                               ; preds = %60, %49, %28
  call void @llvm.lifetime.end.p0(i64 4, ptr %20) #7
  call void @llvm.lifetime.end.p0(i64 4, ptr %19) #7
  call void @llvm.lifetime.end.p0(i64 8, ptr %18) #7
  call void @llvm.lifetime.end.p0(i64 1, ptr %17) #7
  call void @llvm.lifetime.end.p0(i64 4, ptr %16) #7
  %68 = load i32, ptr %8, align 4
  ret i32 %68
}