; Function Attrs: nounwind uwtable
define internal fastcc i32 @get_other_operator(ptr noundef nonnull %0, i32 noundef %1, i32 noundef %2, ptr noundef readonly captures(none) %3, i32 noundef %4, i32 noundef %5, i32 noundef %6) unnamed_addr #0 {
  %8 = alloca [15 x i64], align 16
  %9 = alloca [15 x i8], align 1
  %10 = alloca %struct.nameData, align 1
  %11 = alloca ptr, align 8
  call void @llvm.lifetime.start.p0(i64 8, ptr nonnull %11) #9
  %12 = tail call i32 @LookupOperName(ptr noundef null, ptr noundef nonnull %0, i32 noundef %1, i32 noundef %2, i1 noundef zeroext true, i32 noundef -1) #9
  %.not.i = icmp eq i32 %12, 0
  br i1 %.not.i, label %14, label %OperatorLookup.exit

OperatorLookup.exit:                              ; preds = %7
  %13 = tail call i32 @get_opcode(i32 noundef %12) #9
  br label %59

14:                                               ; preds = %7
  %15 = call i32 @QualifiedNameGetCreationNamespace(ptr noundef nonnull %0, ptr noundef nonnull %11) #9
  %16 = load ptr, ptr %11, align 8
  %17 = call i32 @strcmp(ptr noundef nonnull dereferenceable(1) %16, ptr noundef nonnull dereferenceable(1) %3) #11
  %18 = icmp eq i32 %17, 0
  %19 = icmp eq i32 %15, %4
  %or.cond = select i1 %18, i1 %19, i1 false
  %20 = icmp eq i32 %1, %5
  %or.cond24 = and i1 %20, %or.cond
  %21 = icmp eq i32 %2, %6
  %or.cond25 = and i1 %21, %or.cond24
  br i1 %or.cond25, label %59, label %22

22:                                               ; preds = %14
  %23 = call i32 @GetUserId() #9
  %24 = call i32 @object_aclcheck(i32 noundef 2615, i32 noundef %15, i32 noundef %23, i64 noundef 512) #9
  %.not23 = icmp eq i32 %24, 0
  br i1 %.not23, label %27, label %25

25:                                               ; preds = %22
  %26 = call ptr @get_namespace_name(i32 noundef %15) #9
  call void @aclcheck_error(i32 noundef %24, i32 noundef 36, ptr noundef %26) #9
  br label %27

27:                                               ; preds = %25, %22
  %28 = load ptr, ptr %11, align 8
  call void @llvm.lifetime.start.p0(i64 120, ptr nonnull %8) #9
  call void @llvm.lifetime.start.p0(i64 15, ptr nonnull %9) #9
  call void @llvm.lifetime.start.p0(i64 64, ptr nonnull %10) #9
  %29 = call fastcc zeroext i1 @validOperatorName(ptr noundef %28)
  br i1 %29, label %34, label %30

30:                                               ; preds = %27
  %31 = call zeroext i1 @errstart_cold(i32 noundef 21, ptr noundef null) #10
  call void @llvm.assume(i1 %31)
  %32 = call i32 @errcode(i32 noundef 33579140) #9
  %33 = call i32 (ptr, ...) @errmsg(ptr noundef nonnull @.str, ptr noundef %28) #9
  call void @errfinish(ptr noundef nonnull @.str.1, i32 noundef 214, ptr noundef nonnull @__func__.OperatorShellMake) #9
  unreachable

34:                                               ; preds = %27
  %35 = call ptr @table_open(i32 noundef 2617, i32 noundef 3) #9
  %36 = getelementptr inbounds nuw i8, ptr %35, i64 64
  %37 = load ptr, ptr %36, align 8
  call void @llvm.memset.p0.i64(ptr noundef nonnull align 1 dereferenceable(15) %9, i8 0, i64 15, i1 false)
  %38 = call i32 @GetNewOidWithIndex(ptr noundef %35, i32 noundef 2688, i16 noundef signext 1) #9
  %39 = zext i32 %38 to i64
  store i64 %39, ptr %8, align 16
  call void @namestrcpy(ptr noundef nonnull %10, ptr noundef %28) #9
  %40 = ptrtoint ptr %10 to i64
  %41 = getelementptr inbounds nuw i8, ptr %8, i64 8
  store i64 %40, ptr %41, align 8
  %42 = zext i32 %15 to i64
  %43 = getelementptr inbounds nuw i8, ptr %8, i64 16
  store i64 %42, ptr %43, align 16
  %44 = call i32 @GetUserId() #9
  %45 = zext i32 %44 to i64
  %46 = getelementptr inbounds nuw i8, ptr %8, i64 24
  store i64 %45, ptr %46, align 8
  %.not.i26 = icmp eq i32 %1, 0
  %47 = select i1 %.not.i26, i64 108, i64 98
  %48 = getelementptr inbounds nuw i8, ptr %8, i64 32
  store i64 %47, ptr %48, align 16
  %49 = getelementptr inbounds nuw i8, ptr %8, i64 40
  %50 = zext i32 %1 to i64
  %51 = getelementptr inbounds nuw i8, ptr %8, i64 56
  call void @llvm.memset.p0.i64(ptr noundef nonnull align 8 dereferenceable(16) %49, i8 0, i64 16, i1 false)
  store i64 %50, ptr %51, align 8
  %52 = zext i32 %2 to i64
  %53 = getelementptr inbounds nuw i8, ptr %8, i64 64
  store i64 %52, ptr %53, align 16
  %54 = getelementptr inbounds nuw i8, ptr %8, i64 72
  call void @llvm.memset.p0.i64(ptr noundef nonnull align 8 dereferenceable(48) %54, i8 0, i64 48, i1 false)
  %55 = call ptr @heap_form_tuple(ptr noundef %37, ptr noundef nonnull %8, ptr noundef nonnull %9) #9
  call void @CatalogTupleInsert(ptr noundef %35, ptr noundef %55) #9
  %56 = call { i64, i32 } @makeOperatorDependencies(ptr noundef %55, i1 noundef zeroext true, i1 noundef zeroext false)
  call void @heap_freetuple(ptr noundef %55) #9
  %57 = load ptr, ptr @object_access_hook, align 8
  %.not22.i = icmp eq ptr %57, null
  br i1 %.not22.i, label %OperatorShellMake.exit, label %58

58:                                               ; preds = %34
  call void @RunObjectPostCreateHook(i32 noundef 2617, i32 noundef %38, i32 noundef 0, i1 noundef zeroext false) #9
  br label %OperatorShellMake.exit

OperatorShellMake.exit:                           ; preds = %34, %58
  call void @CommandCounterIncrement() #9
  call void @table_close(ptr noundef nonnull %35, i32 noundef 3) #9
  call void @llvm.lifetime.end.p0(i64 64, ptr nonnull %10) #9
  call void @llvm.lifetime.end.p0(i64 15, ptr nonnull %9) #9
  call void @llvm.lifetime.end.p0(i64 120, ptr nonnull %8) #9
  br label %59

59:                                               ; preds = %OperatorLookup.exit, %14, %OperatorShellMake.exit
  %.0 = phi i32 [ %38, %OperatorShellMake.exit ], [ %12, %OperatorLookup.exit ], [ 0, %14 ]
  call void @llvm.lifetime.end.p0(i64 8, ptr nonnull %11) #9
  ret i32 %.0
}